; Function Attrs: mustprogress uwtable
define hidden void @_ZN3euf6egraph14remove_parentsEPNS_5enodeE(ptr noundef nonnull align 8 dereferenceable(536) %0, ptr noundef readonly captures(none) %1) local_unnamed_addr #3 align 2 {
  %3 = getelementptr inbounds nuw i8, ptr %1, i64 48
  %4 = load ptr, ptr %3, align 8, !tbaa !112
  %5 = icmp eq ptr %4, null
  br i1 %5, label %._crit_edge, label %_ZNK3euf13enode_parents3endEv.exit

_ZNK3euf13enode_parents3endEv.exit:               ; preds = %2
  %6 = getelementptr inbounds i8, ptr %4, i64 -4
  %7 = load i32, ptr %6, align 4, !tbaa !113
  %8 = zext i32 %7 to i64
  %9 = getelementptr inbounds nuw ptr, ptr %4, i64 %8
  %.not16 = icmp eq i32 %7, 0
  br i1 %.not16, label %._crit_edge, label %.lr.ph

.lr.ph:                                           ; preds = %_ZNK3euf13enode_parents3endEv.exit
  %10 = getelementptr inbounds nuw i8, ptr %0, i64 16
  br label %11

._crit_edge:                                      ; preds = %30, %2, %_ZNK3euf13enode_parents3endEv.exit
  ret void

11:                                               ; preds = %.lr.ph, %30
  %.017 = phi ptr [ %4, %.lr.ph ], [ %31, %30 ]
  %12 = load ptr, ptr %.017, align 8, !tbaa !47
  %13 = getelementptr inbounds nuw i8, ptr %12, i64 8
  %14 = load i8, ptr %13, align 8, !tbaa !265, !range !109, !noundef !110
  %15 = trunc nuw i8 %14 to i1
  br i1 %15, label %30, label %16

16:                                               ; preds = %11
  %17 = getelementptr inbounds nuw i8, ptr %12, i64 13
  %18 = load i8, ptr %17, align 1, !tbaa !3, !range !109, !noundef !110
  %19 = trunc nuw i8 %18 to i1
  br i1 %19, label %20, label %25

20:                                               ; preds = %16
  %21 = getelementptr inbounds nuw i8, ptr %12, i64 80
  %22 = load ptr, ptr %21, align 8, !tbaa !128
  %23 = icmp eq ptr %12, %22
  br i1 %23, label %24, label %30

24:                                               ; preds = %20
  store i8 1, ptr %13, align 8, !tbaa !265
  tail call void @_ZN3euf6etable5eraseEPNS_5enodeE(ptr noundef nonnull align 8 dereferenceable(48) %10, ptr noundef nonnull %12)
  br label %30

25:                                               ; preds = %16
  %26 = getelementptr inbounds nuw i8, ptr %12, i64 15
  %27 = load i8, ptr %26, align 1, !tbaa !151, !range !109, !noundef !110
  %28 = trunc nuw i8 %27 to i1
  br i1 %28, label %29, label %30

29:                                               ; preds = %25
  store i8 1, ptr %13, align 8, !tbaa !265
  br label %30

30:                                               ; preds = %24, %29, %25, %20, %11
  %31 = getelementptr inbounds nuw i8, ptr %.017, i64 8
  %.not = icmp eq ptr %31, %9
  br i1 %.not, label %._crit_edge, label %11
}